target datalayout = "e-m:e-p270:32:32-p271:32:32-p272:64:64-i64:64-i128:128-f80:128-n8:16:32:64-S128"
target triple = "x86_64-pc-linux-gnu"

%struct.X509_algor_st = type { ptr, ptr }
%struct.asn1_string_st = type { i32, i32, ptr, i64 }
%struct.ocsp_single_response_st = type { ptr, ptr, ptr, ptr, ptr }
%struct.ocsp_cert_id_st = type { %struct.X509_algor_st, %struct.asn1_string_st, %struct.asn1_string_st, %struct.asn1_string_st }

@.str = private unnamed_addr constant [34 x i8] c"../openssl/crypto/ocsp/ocsp_vfy.c\00", align 1
@__func__.ocsp_match_issuerid = private unnamed_addr constant [20 x i8] c"ocsp_match_issuerid\00", align 1

; Function Attrs: inlinehint nounwind uwtable
define internal ptr @ossl_check_const_OCSP_SINGLERESP_sk_type(ptr noundef %0) #3 {
  %2 = alloca ptr, align 8
  store ptr %0, ptr %2, align 8, !tbaa !75
  %3 = load ptr, ptr %2, align 8, !tbaa !75
  ret ptr %3
}

; Function Attrs: nounwind uwtable
define internal i32 @ocsp_match_issuerid(ptr noundef %0, ptr noundef %1, ptr noundef %2) #0 {
  %4 = alloca i32, align 4
  %5 = alloca ptr, align 8
  %6 = alloca ptr, align 8
  %7 = alloca ptr, align 8
  %8 = alloca i32, align 4
  %9 = alloca ptr, align 8
  %10 = alloca [50 x i8], align 16
  %11 = alloca ptr, align 8
  %12 = alloca i32, align 4
  %13 = alloca [64 x i8], align 16
  %14 = alloca i32, align 4
  %15 = alloca i32, align 4
  %16 = alloca ptr, align 8
  store ptr %0, ptr %5, align 8, !tbaa !16
  store ptr %1, ptr %6, align 8, !tbaa !76
  store ptr %2, ptr %7, align 8, !tbaa !75
  call void @llvm.lifetime.start.p0(i64 4, ptr %8) #5
  store i32 -1, ptr %8, align 4, !tbaa !14
  call void @llvm.lifetime.start.p0(i64 8, ptr %9) #5
  store ptr null, ptr %9, align 8, !tbaa !89
  %17 = load ptr, ptr %6, align 8, !tbaa !76
  %18 = icmp ne ptr %17, null
  br i1 %18, label %19, label %101

19:                                               ; preds = %3
  call void @llvm.lifetime.start.p0(i64 50, ptr %10) #5
  call void @llvm.lifetime.start.p0(i64 8, ptr %11) #5
  call void @llvm.lifetime.start.p0(i64 4, ptr %12) #5
  call void @llvm.lifetime.start.p0(i64 64, ptr %13) #5
  %20 = getelementptr inbounds [50 x i8], ptr %10, i64 0, i64 0
  %21 = load ptr, ptr %6, align 8, !tbaa !76
  %22 = getelementptr inbounds nuw %struct.ocsp_cert_id_st, ptr %21, i32 0, i32 0
  %23 = getelementptr inbounds nuw %struct.X509_algor_st, ptr %22, i32 0, i32 0
  %24 = load ptr, ptr %23, align 8, !tbaa !98
  %25 = call i32 @OBJ_obj2txt(ptr noundef %20, i32 noundef 50, ptr noundef %24, i32 noundef 0)
  %26 = call i32 @ERR_set_mark()
  %27 = getelementptr inbounds [50 x i8], ptr %10, i64 0, i64 0
  %28 = call ptr @EVP_MD_fetch(ptr noundef null, ptr noundef %27, ptr noundef null)
  store ptr %28, ptr %9, align 8, !tbaa !89
  %29 = load ptr, ptr %9, align 8, !tbaa !89
  %30 = icmp eq ptr %29, null
  br i1 %30, label %31, label %34

31:                                               ; preds = %19
  %32 = getelementptr inbounds [50 x i8], ptr %10, i64 0, i64 0
  %33 = call ptr @EVP_get_digestbyname(ptr noundef %32)
  store ptr %33, ptr %9, align 8, !tbaa !89
  br label %34

34:                                               ; preds = %31, %19
  %35 = load ptr, ptr %9, align 8, !tbaa !89
  %36 = icmp eq ptr %35, null
  br i1 %36, label %37, label %39

37:                                               ; preds = %34
  %38 = call i32 @ERR_clear_last_mark()
  call void @ERR_new()
  call void @ERR_set_debug(ptr noundef @.str, i32 noundef 325, ptr noundef @__func__.ocsp_match_issuerid)
  call void (i32, i32, ptr, ...) @ERR_set_error(i32 noundef 39, i32 noundef 119, ptr noundef null)
  store i32 2, ptr %14, align 4
  br label %99

39:                                               ; preds = %34
  %40 = call i32 @ERR_pop_to_mark()
  %41 = load ptr, ptr %9, align 8, !tbaa !89
  %42 = call i32 @EVP_MD_get_size(ptr noundef %41)
  store i32 %42, ptr %12, align 4, !tbaa !14
  %43 = load i32, ptr %12, align 4, !tbaa !14
  %44 = icmp sle i32 %43, 0
  br i1 %44, label %45, label %46

45:                                               ; preds = %39
  call void @ERR_new()
  call void @ERR_set_debug(ptr noundef @.str, i32 noundef 332, ptr noundef @__func__.ocsp_match_issuerid)
  call void (i32, i32, ptr, ...) @ERR_set_error(i32 noundef 39, i32 noundef 107, ptr noundef null)
  store i32 2, ptr %14, align 4
  br label %99

46:                                               ; preds = %39
  %47 = load ptr, ptr %6, align 8, !tbaa !76
  %48 = getelementptr inbounds nuw %struct.ocsp_cert_id_st, ptr %47, i32 0, i32 1
  %49 = getelementptr inbounds nuw %struct.asn1_string_st, ptr %48, i32 0, i32 0
  %50 = load i32, ptr %49, align 8, !tbaa !101
  %51 = load i32, ptr %12, align 4, !tbaa !14
  %52 = icmp ne i32 %50, %51
  br i1 %52, label %60, label %53

53:                                               ; preds = %46
  %54 = load ptr, ptr %6, align 8, !tbaa !76
  %55 = getelementptr inbounds nuw %struct.ocsp_cert_id_st, ptr %54, i32 0, i32 2
  %56 = getelementptr inbounds nuw %struct.asn1_string_st, ptr %55, i32 0, i32 0
  %57 = load i32, ptr %56, align 8, !tbaa !102
  %58 = load i32, ptr %12, align 4, !tbaa !14
  %59 = icmp ne i32 %57, %58
  br i1 %59, label %60, label %61

60:                                               ; preds = %53, %46
  store i32 0, ptr %8, align 4, !tbaa !14
  store i32 2, ptr %14, align 4
  br label %99

61:                                               ; preds = %53
  %62 = load ptr, ptr %5, align 8, !tbaa !16
  %63 = call ptr @X509_get_subject_name(ptr noundef %62)
  store ptr %63, ptr %11, align 8, !tbaa !83
  %64 = load ptr, ptr %11, align 8, !tbaa !83
  %65 = load ptr, ptr %9, align 8, !tbaa !89
  %66 = getelementptr inbounds [64 x i8], ptr %13, i64 0, i64 0
  %67 = call i32 @X509_NAME_digest(ptr noundef %64, ptr noundef %65, ptr noundef %66, ptr noundef null)
  %68 = icmp ne i32 %67, 0
  br i1 %68, label %70, label %69

69:                                               ; preds = %61
  store i32 2, ptr %14, align 4
  br label %99

70:                                               ; preds = %61
  %71 = getelementptr inbounds [64 x i8], ptr %13, i64 0, i64 0
  %72 = load ptr, ptr %6, align 8, !tbaa !76
  %73 = getelementptr inbounds nuw %struct.ocsp_cert_id_st, ptr %72, i32 0, i32 1
  %74 = getelementptr inbounds nuw %struct.asn1_string_st, ptr %73, i32 0, i32 2
  %75 = load ptr, ptr %74, align 8, !tbaa !103
  %76 = load i32, ptr %12, align 4, !tbaa !14
  %77 = sext i32 %76 to i64
  %78 = call i32 @memcmp(ptr noundef %71, ptr noundef %75, i64 noundef %77) #6
  %79 = icmp ne i32 %78, 0
  br i1 %79, label %80, label %81

80:                                               ; preds = %70
  store i32 0, ptr %8, align 4, !tbaa !14
  store i32 2, ptr %14, align 4
  br label %99

81:                                               ; preds = %70
  %82 = load ptr, ptr %5, align 8, !tbaa !16
  %83 = load ptr, ptr %9, align 8, !tbaa !89
  %84 = getelementptr inbounds [64 x i8], ptr %13, i64 0, i64 0
  %85 = call i32 @X509_pubkey_digest(ptr noundef %82, ptr noundef %83, ptr noundef %84, ptr noundef null)
  %86 = icmp ne i32 %85, 0
  br i1 %86, label %88, label %87

87:                                               ; preds = %81
  call void @ERR_new()
  call void @ERR_set_debug(ptr noundef @.str, i32 noundef 348, ptr noundef @__func__.ocsp_match_issuerid)
  call void (i32, i32, ptr, ...) @ERR_set_error(i32 noundef 39, i32 noundef 102, ptr noundef null)
  store i32 2, ptr %14, align 4
  br label %99

88:                                               ; preds = %81
  %89 = getelementptr inbounds [64 x i8], ptr %13, i64 0, i64 0
  %90 = load ptr, ptr %6, align 8, !tbaa !76
  %91 = getelementptr inbounds nuw %struct.ocsp_cert_id_st, ptr %90, i32 0, i32 2
  %92 = getelementptr inbounds nuw %struct.asn1_string_st, ptr %91, i32 0, i32 2
  %93 = load ptr, ptr %92, align 8, !tbaa !104
  %94 = load i32, ptr %12, align 4, !tbaa !14
  %95 = sext i32 %94 to i64
  %96 = call i32 @memcmp(ptr noundef %89, ptr noundef %93, i64 noundef %95) #6
  %97 = icmp eq i32 %96, 0
  %98 = zext i1 %97 to i32
  store i32 %98, ptr %8, align 4, !tbaa !14
  store i32 2, ptr %14, align 4
  br label %99

99:                                               ; preds = %88, %87, %80, %69, %60, %45, %37
  call void @llvm.lifetime.end.p0(i64 64, ptr %13) #5
  call void @llvm.lifetime.end.p0(i64 4, ptr %12) #5
  call void @llvm.lifetime.end.p0(i64 8, ptr %11) #5
  call void @llvm.lifetime.end.p0(i64 50, ptr %10) #5
  %100 = load i32, ptr %14, align 4
  switch i32 %100, label %134 [
    i32 2, label %131
  ]

101:                                              ; preds = %3
  call void @llvm.lifetime.start.p0(i64 4, ptr %15) #5
  call void @llvm.lifetime.start.p0(i64 8, ptr %16) #5
  store i32 0, ptr %15, align 4, !tbaa !14
  br label %102

102:                                              ; preds = %123, %101
  %103 = load i32, ptr %15, align 4, !tbaa !14
  %104 = load ptr, ptr %7, align 8, !tbaa !75
  %105 = call ptr @ossl_check_const_OCSP_SINGLERESP_sk_type(ptr noundef %104)
  %106 = call i32 @OPENSSL_sk_num(ptr noundef %105)
  %107 = icmp slt i32 %103, %106
  br i1 %107, label %108, label %126

108:                                              ; preds = %102
  %109 = load ptr, ptr %7, align 8, !tbaa !75
  %110 = call ptr @ossl_check_const_OCSP_SINGLERESP_sk_type(ptr noundef %109)
  %111 = load i32, ptr %15, align 4, !tbaa !14
  %112 = call ptr @OPENSSL_sk_value(ptr noundef %110, i32 noundef %111)
  %113 = getelementptr inbounds nuw %struct.ocsp_single_response_st, ptr %112, i32 0, i32 0
  %114 = load ptr, ptr %113, align 8, !tbaa !95
  store ptr %114, ptr %16, align 8, !tbaa !76
  %115 = load ptr, ptr %5, align 8, !tbaa !16
  %116 = load ptr, ptr %16, align 8, !tbaa !76
  %117 = call i32 @ocsp_match_issuerid(ptr noundef %115, ptr noundef %116, ptr noundef null)
  store i32 %117, ptr %8, align 4, !tbaa !14
  %118 = load i32, ptr %8, align 4, !tbaa !14
  %119 = icmp sle i32 %118, 0
  br i1 %119, label %120, label %122

120:                                              ; preds = %108
  %121 = load i32, ptr %8, align 4, !tbaa !14
  store i32 %121, ptr %4, align 4
  store i32 1, ptr %14, align 4
  br label %127

122:                                              ; preds = %108
  br label %123

123:                                              ; preds = %122
  %124 = load i32, ptr %15, align 4, !tbaa !14
  %125 = add nsw i32 %124, 1
  store i32 %125, ptr %15, align 4, !tbaa !14
  br label %102, !llvm.loop !105

126:                                              ; preds = %102
  store i32 0, ptr %14, align 4
  br label %127

127:                                              ; preds = %126, %120
  call void @llvm.lifetime.end.p0(i64 8, ptr %16) #5
  call void @llvm.lifetime.end.p0(i64 4, ptr %15) #5
  %128 = load i32, ptr %14, align 4
  switch i32 %128, label %134 [
    i32 0, label %129
  ]

129:                                              ; preds = %127
  br label %130

130:                                              ; preds = %129
  store i32 1, ptr %4, align 4
  store i32 1, ptr %14, align 4
  br label %134

131:                                              ; preds = %99
  %132 = load ptr, ptr %9, align 8, !tbaa !89
  call void @EVP_MD_free(ptr noundef %132)
  %133 = load i32, ptr %8, align 4, !tbaa !14
  store i32 %133, ptr %4, align 4
  store i32 1, ptr %14, align 4
  br label %134

134:                                              ; preds = %131, %99, %130, %127
  call void @llvm.lifetime.end.p0(i64 8, ptr %9) #5
  call void @llvm.lifetime.end.p0(i64 4, ptr %8) #5
  %135 = load i32, ptr %4, align 4
  ret i32 %135
}