; Function Attrs: nounwind uwtable
define internal fastcc range(i32 -1, 2) i32 @ocsp_match_issuerid(ptr noundef %0, ptr noundef readonly captures(address_is_null) %1, ptr noundef %2) unnamed_addr #0 {
  %4 = alloca [50 x i8], align 16
  %5 = alloca [64 x i8], align 16
  %.not = icmp eq ptr %1, null
  br i1 %.not, label %.preheader, label %7

.preheader:                                       ; preds = %3
  %6 = tail call i32 @OPENSSL_sk_num(ptr noundef %2) #4
  %.not4252 = icmp sgt i32 %6, 0
  br i1 %.not4252, label %.lr.ph, label %.loopexit

7:                                                ; preds = %3
  call void @llvm.lifetime.start.p0(i64 50, ptr nonnull %4) #4
  call void @llvm.lifetime.start.p0(i64 64, ptr nonnull %5) #4
  %8 = load ptr, ptr %1, align 8, !tbaa !26
  %9 = call i32 @OBJ_obj2txt(ptr noundef nonnull %4, i32 noundef 50, ptr noundef %8, i32 noundef 0) #4
  %10 = call i32 @ERR_set_mark() #4
  %11 = call ptr @EVP_MD_fetch(ptr noundef null, ptr noundef nonnull %4, ptr noundef null) #4
  %12 = icmp eq ptr %11, null
  br i1 %12, label %13, label %.thread

13:                                               ; preds = %7
  %14 = call ptr @EVP_get_digestbyname(ptr noundef nonnull %4) #4
  %15 = icmp eq ptr %14, null
  br i1 %15, label %16, label %.thread

16:                                               ; preds = %13
  %17 = call i32 @ERR_clear_last_mark() #4
  call void @ERR_new() #4
  call void @ERR_set_debug(ptr noundef nonnull @.str, i32 noundef 325, ptr noundef nonnull @__func__.ocsp_match_issuerid) #4
  call void (i32, i32, ptr, ...) @ERR_set_error(i32 noundef 39, i32 noundef 119, ptr noundef null) #4
  br label %43

.thread:                                          ; preds = %7, %13
  %.03751 = phi ptr [ %14, %13 ], [ %11, %7 ]
  %18 = call i32 @ERR_pop_to_mark() #4
  %19 = call i32 @EVP_MD_get_size(ptr noundef nonnull %.03751) #4
  %20 = icmp slt i32 %19, 1
  br i1 %20, label %21, label %22

21:                                               ; preds = %.thread
  call void @ERR_new() #4
  call void @ERR_set_debug(ptr noundef nonnull @.str, i32 noundef 332, ptr noundef nonnull @__func__.ocsp_match_issuerid) #4
  call void (i32, i32, ptr, ...) @ERR_set_error(i32 noundef 39, i32 noundef 107, ptr noundef null) #4
  br label %43

22:                                               ; preds = %.thread
  %23 = getelementptr inbounds nuw i8, ptr %1, i64 16
  %24 = load i32, ptr %23, align 8, !tbaa !72
  %.not43 = icmp eq i32 %24, %19
  br i1 %.not43, label %25, label %43

25:                                               ; preds = %22
  %26 = getelementptr inbounds nuw i8, ptr %1, i64 40
  %27 = load i32, ptr %26, align 8, !tbaa !73
  %.not44 = icmp eq i32 %27, %19
  br i1 %.not44, label %28, label %43

28:                                               ; preds = %25
  %29 = call ptr @X509_get_subject_name(ptr noundef %0) #4
  %30 = call i32 @X509_NAME_digest(ptr noundef %29, ptr noundef nonnull %.03751, ptr noundef nonnull %5, ptr noundef null) #4
  %.not45 = icmp eq i32 %30, 0
  br i1 %.not45, label %43, label %31

31:                                               ; preds = %28
  %32 = getelementptr inbounds nuw i8, ptr %1, i64 24
  %33 = load ptr, ptr %32, align 8, !tbaa !74
  %34 = zext nneg i32 %19 to i64
  %bcmp = call i32 @bcmp(ptr nonnull %5, ptr %33, i64 %34)
  %.not46 = icmp eq i32 %bcmp, 0
  br i1 %.not46, label %35, label %43

35:                                               ; preds = %31
  %36 = call i32 @X509_pubkey_digest(ptr noundef %0, ptr noundef nonnull %.03751, ptr noundef nonnull %5, ptr noundef null) #4
  %.not47 = icmp eq i32 %36, 0
  br i1 %.not47, label %37, label %38

37:                                               ; preds = %35
  call void @ERR_new() #4
  call void @ERR_set_debug(ptr noundef nonnull @.str, i32 noundef 348, ptr noundef nonnull @__func__.ocsp_match_issuerid) #4
  call void (i32, i32, ptr, ...) @ERR_set_error(i32 noundef 39, i32 noundef 102, ptr noundef null) #4
  br label %43

38:                                               ; preds = %35
  %39 = getelementptr inbounds nuw i8, ptr %1, i64 48
  %40 = load ptr, ptr %39, align 8, !tbaa !75
  %bcmp48 = call i32 @bcmp(ptr nonnull %5, ptr %40, i64 %34)
  %41 = icmp eq i32 %bcmp48, 0
  %42 = zext i1 %41 to i32
  br label %43

43:                                               ; preds = %31, %28, %22, %25, %38, %37, %21, %16
  %.03750 = phi ptr [ null, %16 ], [ %.03751, %21 ], [ %.03751, %38 ], [ %.03751, %37 ], [ %.03751, %25 ], [ %.03751, %22 ], [ %.03751, %28 ], [ %.03751, %31 ]
  %.036 = phi i32 [ -1, %16 ], [ -1, %21 ], [ %42, %38 ], [ -1, %37 ], [ 0, %25 ], [ 0, %22 ], [ -1, %28 ], [ 0, %31 ]
  call void @llvm.lifetime.end.p0(i64 64, ptr nonnull %5) #4
  call void @llvm.lifetime.end.p0(i64 50, ptr nonnull %4) #4
  call void @EVP_MD_free(ptr noundef %.03750) #4
  br label %.loopexit

44:                                               ; preds = %.lr.ph
  %45 = add nuw nsw i32 %.03353, 1
  %46 = tail call i32 @OPENSSL_sk_num(ptr noundef %2) #4
  %.not42 = icmp slt i32 %45, %46
  br i1 %.not42, label %.lr.ph, label %.loopexit, !llvm.loop !76

.lr.ph:                                           ; preds = %.preheader, %44
  %.03353 = phi i32 [ %45, %44 ], [ 0, %.preheader ]
  %47 = tail call ptr @OPENSSL_sk_value(ptr noundef %2, i32 noundef %.03353) #4
  %48 = load ptr, ptr %47, align 8, !tbaa !20
  %49 = tail call fastcc i32 @ocsp_match_issuerid(ptr noundef %0, ptr noundef %48, ptr noundef null)
  %50 = icmp slt i32 %49, 1
  br i1 %50, label %.loopexit, label %44

.loopexit:                                        ; preds = %44, %.lr.ph, %.preheader, %43
  %.0 = phi i32 [ %.036, %43 ], [ 1, %.preheader ], [ 1, %44 ], [ %49, %.lr.ph ]
  ret i32 %.0
}